target datalayout = "e-m:e-p270:32:32-p271:32:32-p272:64:64-i64:64-i128:128-f80:128-n8:16:32:64-S128"
target triple = "x86_64-pc-linux-gnu"

%struct.evhttp_uri = type { i32, ptr, ptr, ptr, i32, ptr, ptr, ptr, ptr }

@.str.6 = private unnamed_addr constant [2 x i8] c":\00", align 1
@.str.37 = private unnamed_addr constant [3 x i8] c"//\00", align 1
@.str.38 = private unnamed_addr constant [4 x i8] c"%s@\00", align 1
@.str.39 = private unnamed_addr constant [9 x i8] c"unix:%s:\00", align 1
@.str.40 = private unnamed_addr constant [2 x i8] c"[\00", align 1
@.str.41 = private unnamed_addr constant [2 x i8] c"]\00", align 1
@.str.42 = private unnamed_addr constant [4 x i8] c":%d\00", align 1
@.str.43 = private unnamed_addr constant [2 x i8] c"?\00", align 1
@.str.44 = private unnamed_addr constant [2 x i8] c"#\00", align 1
@.str.45 = private unnamed_addr constant [2 x i8] zeroinitializer, align 1

; Function Attrs: nounwind uwtable
define ptr @evhttp_uri_join(ptr noundef %0, ptr noundef %1, i64 noundef %2) #0 {
  %4 = alloca ptr, align 8
  %5 = alloca ptr, align 8
  %6 = alloca ptr, align 8
  %7 = alloca i64, align 8
  %8 = alloca ptr, align 8
  %9 = alloca i64, align 8
  %10 = alloca ptr, align 8
  %11 = alloca i32, align 4
  store ptr %0, ptr %5, align 8
  store ptr %1, ptr %6, align 8
  store i64 %2, ptr %7, align 8
  call void @llvm.lifetime.start.p0(i64 8, ptr %8) #11
  store ptr null, ptr %8, align 8
  call void @llvm.lifetime.start.p0(i64 8, ptr %9) #11
  store i64 0, ptr %9, align 8
  call void @llvm.lifetime.start.p0(i64 8, ptr %10) #11
  store ptr null, ptr %10, align 8
  %12 = load ptr, ptr %5, align 8
  %13 = icmp ne ptr %12, null
  br i1 %13, label %14, label %20

14:                                               ; preds = %3
  %15 = load ptr, ptr %6, align 8
  %16 = icmp ne ptr %15, null
  br i1 %16, label %17, label %20

17:                                               ; preds = %14
  %18 = load i64, ptr %7, align 8
  %19 = icmp ne i64 %18, 0
  br i1 %19, label %21, label %20

20:                                               ; preds = %17, %14, %3
  store ptr null, ptr %4, align 8
  store i32 1, ptr %11, align 4
  br label %218

21:                                               ; preds = %17
  %22 = call ptr @evbuffer_new()
  store ptr %22, ptr %8, align 8
  %23 = load ptr, ptr %8, align 8
  %24 = icmp ne ptr %23, null
  br i1 %24, label %26, label %25

25:                                               ; preds = %21
  store ptr null, ptr %4, align 8
  store i32 1, ptr %11, align 4
  br label %218

26:                                               ; preds = %21
  %27 = load ptr, ptr %5, align 8
  %28 = getelementptr inbounds nuw %struct.evhttp_uri, ptr %27, i32 0, i32 1
  %29 = load ptr, ptr %28, align 8
  %30 = icmp ne ptr %29, null
  br i1 %30, label %31, label %43

31:                                               ; preds = %26
  %32 = load ptr, ptr %8, align 8
  %33 = load ptr, ptr %5, align 8
  %34 = getelementptr inbounds nuw %struct.evhttp_uri, ptr %33, i32 0, i32 1
  %35 = load ptr, ptr %34, align 8
  %36 = load ptr, ptr %5, align 8
  %37 = getelementptr inbounds nuw %struct.evhttp_uri, ptr %36, i32 0, i32 1
  %38 = load ptr, ptr %37, align 8
  %39 = call i64 @strlen(ptr noundef %38) #12
  %40 = call i32 @evbuffer_add(ptr noundef %32, ptr noundef %35, i64 noundef %39)
  %41 = load ptr, ptr %8, align 8
  %42 = call i32 @evbuffer_add(ptr noundef %41, ptr noundef @.str.6, i64 noundef 1)
  br label %43

43:                                               ; preds = %31, %26
  %44 = load ptr, ptr %5, align 8
  %45 = getelementptr inbounds nuw %struct.evhttp_uri, ptr %44, i32 0, i32 5
  %46 = load ptr, ptr %45, align 8
  %47 = icmp ne ptr %46, null
  br i1 %47, label %48, label %67

48:                                               ; preds = %43
  %49 = load ptr, ptr %8, align 8
  %50 = call i32 @evbuffer_add(ptr noundef %49, ptr noundef @.str.37, i64 noundef 2)
  %51 = load ptr, ptr %5, align 8
  %52 = getelementptr inbounds nuw %struct.evhttp_uri, ptr %51, i32 0, i32 2
  %53 = load ptr, ptr %52, align 8
  %54 = icmp ne ptr %53, null
  br i1 %54, label %55, label %61

55:                                               ; preds = %48
  %56 = load ptr, ptr %8, align 8
  %57 = load ptr, ptr %5, align 8
  %58 = getelementptr inbounds nuw %struct.evhttp_uri, ptr %57, i32 0, i32 2
  %59 = load ptr, ptr %58, align 8
  %60 = call i32 (ptr, ptr, ...) @evbuffer_add_printf(ptr noundef %56, ptr noundef @.str.38, ptr noundef %59)
  br label %61

61:                                               ; preds = %55, %48
  %62 = load ptr, ptr %8, align 8
  %63 = load ptr, ptr %5, align 8
  %64 = getelementptr inbounds nuw %struct.evhttp_uri, ptr %63, i32 0, i32 5
  %65 = load ptr, ptr %64, align 8
  %66 = call i32 (ptr, ptr, ...) @evbuffer_add_printf(ptr noundef %62, ptr noundef @.str.39, ptr noundef %65)
  br label %150

67:                                               ; preds = %43
  %68 = load ptr, ptr %5, align 8
  %69 = getelementptr inbounds nuw %struct.evhttp_uri, ptr %68, i32 0, i32 3
  %70 = load ptr, ptr %69, align 8
  %71 = icmp ne ptr %70, null
  br i1 %71, label %72, label %149

72:                                               ; preds = %67
  %73 = load ptr, ptr %8, align 8
  %74 = call i32 @evbuffer_add(ptr noundef %73, ptr noundef @.str.37, i64 noundef 2)
  %75 = load ptr, ptr %5, align 8
  %76 = getelementptr inbounds nuw %struct.evhttp_uri, ptr %75, i32 0, i32 2
  %77 = load ptr, ptr %76, align 8
  %78 = icmp ne ptr %77, null
  br i1 %78, label %79, label %85

79:                                               ; preds = %72
  %80 = load ptr, ptr %8, align 8
  %81 = load ptr, ptr %5, align 8
  %82 = getelementptr inbounds nuw %struct.evhttp_uri, ptr %81, i32 0, i32 2
  %83 = load ptr, ptr %82, align 8
  %84 = call i32 (ptr, ptr, ...) @evbuffer_add_printf(ptr noundef %80, ptr noundef @.str.38, ptr noundef %83)
  br label %85

85:                                               ; preds = %79, %72
  %86 = load ptr, ptr %5, align 8
  %87 = getelementptr inbounds nuw %struct.evhttp_uri, ptr %86, i32 0, i32 0
  %88 = load i32, ptr %87, align 8
  %89 = and i32 %88, 2
  %90 = icmp ne i32 %89, 0
  br i1 %90, label %91, label %105

91:                                               ; preds = %85
  %92 = load ptr, ptr %8, align 8
  %93 = call i32 @evbuffer_add(ptr noundef %92, ptr noundef @.str.40, i64 noundef 1)
  %94 = load ptr, ptr %8, align 8
  %95 = load ptr, ptr %5, align 8
  %96 = getelementptr inbounds nuw %struct.evhttp_uri, ptr %95, i32 0, i32 3
  %97 = load ptr, ptr %96, align 8
  %98 = load ptr, ptr %5, align 8
  %99 = getelementptr inbounds nuw %struct.evhttp_uri, ptr %98, i32 0, i32 3
  %100 = load ptr, ptr %99, align 8
  %101 = call i64 @strlen(ptr noundef %100) #12
  %102 = call i32 @evbuffer_add(ptr noundef %94, ptr noundef %97, i64 noundef %101)
  %103 = load ptr, ptr %8, align 8
  %104 = call i32 @evbuffer_add(ptr noundef %103, ptr noundef @.str.41, i64 noundef 1)
  br label %115

105:                                              ; preds = %85
  %106 = load ptr, ptr %8, align 8
  %107 = load ptr, ptr %5, align 8
  %108 = getelementptr inbounds nuw %struct.evhttp_uri, ptr %107, i32 0, i32 3
  %109 = load ptr, ptr %108, align 8
  %110 = load ptr, ptr %5, align 8
  %111 = getelementptr inbounds nuw %struct.evhttp_uri, ptr %110, i32 0, i32 3
  %112 = load ptr, ptr %111, align 8
  %113 = call i64 @strlen(ptr noundef %112) #12
  %114 = call i32 @evbuffer_add(ptr noundef %106, ptr noundef %109, i64 noundef %113)
  br label %115

115:                                              ; preds = %105, %91
  %116 = load ptr, ptr %5, align 8
  %117 = getelementptr inbounds nuw %struct.evhttp_uri, ptr %116, i32 0, i32 4
  %118 = load i32, ptr %117, align 8
  %119 = icmp sge i32 %118, 0
  br i1 %119, label %120, label %126

120:                                              ; preds = %115
  %121 = load ptr, ptr %8, align 8
  %122 = load ptr, ptr %5, align 8
  %123 = getelementptr inbounds nuw %struct.evhttp_uri, ptr %122, i32 0, i32 4
  %124 = load i32, ptr %123, align 8
  %125 = call i32 (ptr, ptr, ...) @evbuffer_add_printf(ptr noundef %121, ptr noundef @.str.42, i32 noundef %124)
  br label %126

126:                                              ; preds = %120, %115
  %127 = load ptr, ptr %5, align 8
  %128 = getelementptr inbounds nuw %struct.evhttp_uri, ptr %127, i32 0, i32 6
  %129 = load ptr, ptr %128, align 8
  %130 = icmp ne ptr %129, null
  br i1 %130, label %131, label %148

131:                                              ; preds = %126
  %132 = load ptr, ptr %5, align 8
  %133 = getelementptr inbounds nuw %struct.evhttp_uri, ptr %132, i32 0, i32 6
  %134 = load ptr, ptr %133, align 8
  %135 = getelementptr inbounds i8, ptr %134, i64 0
  %136 = load i8, ptr %135, align 1
  %137 = sext i8 %136 to i32
  %138 = icmp ne i32 %137, 47
  br i1 %138, label %139, label %148

139:                                              ; preds = %131
  %140 = load ptr, ptr %5, align 8
  %141 = getelementptr inbounds nuw %struct.evhttp_uri, ptr %140, i32 0, i32 6
  %142 = load ptr, ptr %141, align 8
  %143 = getelementptr inbounds i8, ptr %142, i64 0
  %144 = load i8, ptr %143, align 1
  %145 = sext i8 %144 to i32
  %146 = icmp ne i32 %145, 0
  br i1 %146, label %147, label %148

147:                                              ; preds = %139
  br label %215

148:                                              ; preds = %139, %131, %126
  br label %149

149:                                              ; preds = %148, %67
  br label %150

150:                                              ; preds = %149, %61
  %151 = load ptr, ptr %5, align 8
  %152 = getelementptr inbounds nuw %struct.evhttp_uri, ptr %151, i32 0, i32 6
  %153 = load ptr, ptr %152, align 8
  %154 = icmp ne ptr %153, null
  br i1 %154, label %155, label %165

155:                                              ; preds = %150
  %156 = load ptr, ptr %8, align 8
  %157 = load ptr, ptr %5, align 8
  %158 = getelementptr inbounds nuw %struct.evhttp_uri, ptr %157, i32 0, i32 6
  %159 = load ptr, ptr %158, align 8
  %160 = load ptr, ptr %5, align 8
  %161 = getelementptr inbounds nuw %struct.evhttp_uri, ptr %160, i32 0, i32 6
  %162 = load ptr, ptr %161, align 8
  %163 = call i64 @strlen(ptr noundef %162) #12
  %164 = call i32 @evbuffer_add(ptr noundef %156, ptr noundef %159, i64 noundef %163)
  br label %165

165:                                              ; preds = %155, %150
  %166 = load ptr, ptr %5, align 8
  %167 = getelementptr inbounds nuw %struct.evhttp_uri, ptr %166, i32 0, i32 7
  %168 = load ptr, ptr %167, align 8
  %169 = icmp ne ptr %168, null
  br i1 %169, label %170, label %182

170:                                              ; preds = %165
  %171 = load ptr, ptr %8, align 8
  %172 = call i32 @evbuffer_add(ptr noundef %171, ptr noundef @.str.43, i64 noundef 1)
  %173 = load ptr, ptr %8, align 8
  %174 = load ptr, ptr %5, align 8
  %175 = getelementptr inbounds nuw %struct.evhttp_uri, ptr %174, i32 0, i32 7
  %176 = load ptr, ptr %175, align 8
  %177 = load ptr, ptr %5, align 8
  %178 = getelementptr inbounds nuw %struct.evhttp_uri, ptr %177, i32 0, i32 7
  %179 = load ptr, ptr %178, align 8
  %180 = call i64 @strlen(ptr noundef %179) #12
  %181 = call i32 @evbuffer_add(ptr noundef %173, ptr noundef %176, i64 noundef %180)
  br label %182

182:                                              ; preds = %170, %165
  %183 = load ptr, ptr %5, align 8
  %184 = getelementptr inbounds nuw %struct.evhttp_uri, ptr %183, i32 0, i32 8
  %185 = load ptr, ptr %184, align 8
  %186 = icmp ne ptr %185, null
  br i1 %186, label %187, label %199

187:                                              ; preds = %182
  %188 = load ptr, ptr %8, align 8
  %189 = call i32 @evbuffer_add(ptr noundef %188, ptr noundef @.str.44, i64 noundef 1)
  %190 = load ptr, ptr %8, align 8
  %191 = load ptr, ptr %5, align 8
  %192 = getelementptr inbounds nuw %struct.evhttp_uri, ptr %191, i32 0, i32 8
  %193 = load ptr, ptr %192, align 8
  %194 = load ptr, ptr %5, align 8
  %195 = getelementptr inbounds nuw %struct.evhttp_uri, ptr %194, i32 0, i32 8
  %196 = load ptr, ptr %195, align 8
  %197 = call i64 @strlen(ptr noundef %196) #12
  %198 = call i32 @evbuffer_add(ptr noundef %190, ptr noundef %193, i64 noundef %197)
  br label %199

199:                                              ; preds = %187, %182
  %200 = load ptr, ptr %8, align 8
  %201 = call i32 @evbuffer_add(ptr noundef %200, ptr noundef @.str.45, i64 noundef 1)
  %202 = load ptr, ptr %8, align 8
  %203 = call i64 @evbuffer_get_length(ptr noundef %202)
  store i64 %203, ptr %9, align 8
  %204 = load i64, ptr %9, align 8
  %205 = load i64, ptr %7, align 8
  %206 = icmp ugt i64 %204, %205
  br i1 %206, label %207, label %209

207:                                              ; preds = %199
  %208 = load ptr, ptr %8, align 8
  call void @evbuffer_free(ptr noundef %208)
  store ptr null, ptr %4, align 8
  store i32 1, ptr %11, align 4
  br label %218

209:                                              ; preds = %199
  %210 = load ptr, ptr %8, align 8
  %211 = load ptr, ptr %6, align 8
  %212 = load i64, ptr %9, align 8
  %213 = call i32 @evbuffer_remove(ptr noundef %210, ptr noundef %211, i64 noundef %212)
  %214 = load ptr, ptr %6, align 8
  store ptr %214, ptr %10, align 8
  br label %215

215:                                              ; preds = %209, %147
  %216 = load ptr, ptr %8, align 8
  call void @evbuffer_free(ptr noundef %216)
  %217 = load ptr, ptr %10, align 8
  store ptr %217, ptr %4, align 8
  store i32 1, ptr %11, align 4
  br label %218

218:                                              ; preds = %215, %207, %25, %20
  call void @llvm.lifetime.end.p0(i64 8, ptr %10) #11
  call void @llvm.lifetime.end.p0(i64 8, ptr %9) #11
  call void @llvm.lifetime.end.p0(i64 8, ptr %8) #11
  %219 = load ptr, ptr %4, align 8
  ret ptr %219
}