; Function Attrs: nounwind uwtable
define noundef ptr @evhttp_uri_join(ptr noundef readonly captures(address_is_null) %0, ptr noundef %1, i64 noundef %2) local_unnamed_addr #0 {
  %4 = icmp ne ptr %0, null
  %5 = icmp ne ptr %1, null
  %or.cond = and i1 %4, %5
  %6 = icmp ne i64 %2, 0
  %or.cond3 = and i1 %or.cond, %6
  br i1 %or.cond3, label %7, label %89

7:                                                ; preds = %3
  %8 = tail call ptr @evbuffer_new() #18
  %.not = icmp eq ptr %8, null
  br i1 %.not, label %89, label %9

9:                                                ; preds = %7
  %10 = getelementptr inbounds nuw i8, ptr %0, i64 8
  %11 = load ptr, ptr %10, align 8
  %.not77 = icmp eq ptr %11, null
  br i1 %.not77, label %16, label %12

12:                                               ; preds = %9
  %13 = tail call i64 @strlen(ptr noundef nonnull dereferenceable(1) %11) #17
  %14 = tail call i32 @evbuffer_add(ptr noundef nonnull %8, ptr noundef nonnull %11, i64 noundef %13) #18
  %15 = tail call i32 @evbuffer_add(ptr noundef nonnull %8, ptr noundef nonnull @.str.6, i64 noundef 1) #18
  br label %16

16:                                               ; preds = %12, %9
  %17 = getelementptr inbounds nuw i8, ptr %0, i64 40
  %18 = load ptr, ptr %17, align 8
  %.not78 = icmp eq ptr %18, null
  br i1 %.not78, label %28, label %19

19:                                               ; preds = %16
  %20 = tail call i32 @evbuffer_add(ptr noundef nonnull %8, ptr noundef nonnull @.str.37, i64 noundef 2) #18
  %21 = getelementptr inbounds nuw i8, ptr %0, i64 16
  %22 = load ptr, ptr %21, align 8
  %.not85 = icmp eq ptr %22, null
  br i1 %.not85, label %25, label %23

23:                                               ; preds = %19
  %24 = tail call i32 (ptr, ptr, ...) @evbuffer_add_printf(ptr noundef nonnull %8, ptr noundef nonnull @.str.38, ptr noundef nonnull %22) #18
  br label %25

25:                                               ; preds = %23, %19
  %26 = load ptr, ptr %17, align 8
  %27 = tail call i32 (ptr, ptr, ...) @evbuffer_add_printf(ptr noundef nonnull %8, ptr noundef nonnull @.str.39, ptr noundef %26) #18
  br label %61

28:                                               ; preds = %16
  %29 = getelementptr inbounds nuw i8, ptr %0, i64 24
  %30 = load ptr, ptr %29, align 8
  %.not79 = icmp eq ptr %30, null
  br i1 %.not79, label %61, label %31

31:                                               ; preds = %28
  %32 = tail call i32 @evbuffer_add(ptr noundef nonnull %8, ptr noundef nonnull @.str.37, i64 noundef 2) #18
  %33 = getelementptr inbounds nuw i8, ptr %0, i64 16
  %34 = load ptr, ptr %33, align 8
  %.not80 = icmp eq ptr %34, null
  br i1 %.not80, label %37, label %35

35:                                               ; preds = %31
  %36 = tail call i32 (ptr, ptr, ...) @evbuffer_add_printf(ptr noundef nonnull %8, ptr noundef nonnull @.str.38, ptr noundef nonnull %34) #18
  br label %37

37:                                               ; preds = %35, %31
  %38 = load i32, ptr %0, align 8
  %39 = and i32 %38, 2
  %.not81 = icmp eq i32 %39, 0
  br i1 %.not81, label %46, label %40

40:                                               ; preds = %37
  %41 = tail call i32 @evbuffer_add(ptr noundef nonnull %8, ptr noundef nonnull @.str.40, i64 noundef 1) #18
  %42 = load ptr, ptr %29, align 8
  %43 = tail call i64 @strlen(ptr noundef nonnull dereferenceable(1) %42) #17
  %44 = tail call i32 @evbuffer_add(ptr noundef nonnull %8, ptr noundef nonnull %42, i64 noundef %43) #18
  %45 = tail call i32 @evbuffer_add(ptr noundef nonnull %8, ptr noundef nonnull @.str.41, i64 noundef 1) #18
  br label %50

46:                                               ; preds = %37
  %47 = load ptr, ptr %29, align 8
  %48 = tail call i64 @strlen(ptr noundef nonnull dereferenceable(1) %47) #17
  %49 = tail call i32 @evbuffer_add(ptr noundef nonnull %8, ptr noundef nonnull %47, i64 noundef %48) #18
  br label %50

50:                                               ; preds = %46, %40
  %51 = getelementptr inbounds nuw i8, ptr %0, i64 32
  %52 = load i32, ptr %51, align 8
  %53 = icmp sgt i32 %52, -1
  br i1 %53, label %54, label %56

54:                                               ; preds = %50
  %55 = tail call i32 (ptr, ptr, ...) @evbuffer_add_printf(ptr noundef nonnull %8, ptr noundef nonnull @.str.42, i32 noundef %52) #18
  br label %56

56:                                               ; preds = %54, %50
  %57 = getelementptr inbounds nuw i8, ptr %0, i64 48
  %58 = load ptr, ptr %57, align 8
  %.not82 = icmp eq ptr %58, null
  br i1 %.not82, label %61, label %59

59:                                               ; preds = %56
  %60 = load i8, ptr %58, align 1
  switch i8 %60, label %.sink.split [
    i8 47, label %61
    i8 0, label %61
  ]

61:                                               ; preds = %59, %59, %28, %56, %25
  %62 = getelementptr inbounds nuw i8, ptr %0, i64 48
  %63 = load ptr, ptr %62, align 8
  %.not86 = icmp eq ptr %63, null
  br i1 %.not86, label %67, label %64

64:                                               ; preds = %61
  %65 = tail call i64 @strlen(ptr noundef nonnull dereferenceable(1) %63) #17
  %66 = tail call i32 @evbuffer_add(ptr noundef nonnull %8, ptr noundef nonnull %63, i64 noundef %65) #18
  br label %67

67:                                               ; preds = %64, %61
  %68 = getelementptr inbounds nuw i8, ptr %0, i64 56
  %69 = load ptr, ptr %68, align 8
  %.not87 = icmp eq ptr %69, null
  br i1 %.not87, label %75, label %70

70:                                               ; preds = %67
  %71 = tail call i32 @evbuffer_add(ptr noundef nonnull %8, ptr noundef nonnull @.str.43, i64 noundef 1) #18
  %72 = load ptr, ptr %68, align 8
  %73 = tail call i64 @strlen(ptr noundef nonnull dereferenceable(1) %72) #17
  %74 = tail call i32 @evbuffer_add(ptr noundef nonnull %8, ptr noundef nonnull %72, i64 noundef %73) #18
  br label %75

75:                                               ; preds = %70, %67
  %76 = getelementptr inbounds nuw i8, ptr %0, i64 64
  %77 = load ptr, ptr %76, align 8
  %.not88 = icmp eq ptr %77, null
  br i1 %.not88, label %83, label %78

78:                                               ; preds = %75
  %79 = tail call i32 @evbuffer_add(ptr noundef nonnull %8, ptr noundef nonnull @.str.44, i64 noundef 1) #18
  %80 = load ptr, ptr %76, align 8
  %81 = tail call i64 @strlen(ptr noundef nonnull dereferenceable(1) %80) #17
  %82 = tail call i32 @evbuffer_add(ptr noundef nonnull %8, ptr noundef nonnull %80, i64 noundef %81) #18
  br label %83

83:                                               ; preds = %78, %75
  %84 = tail call i32 @evbuffer_add(ptr noundef nonnull %8, ptr noundef nonnull @.str.45, i64 noundef 1) #18
  %85 = tail call i64 @evbuffer_get_length(ptr noundef nonnull %8) #18
  %86 = icmp ugt i64 %85, %2
  br i1 %86, label %.sink.split, label %87

87:                                               ; preds = %83
  %88 = tail call i32 @evbuffer_remove(ptr noundef nonnull %8, ptr noundef nonnull %1, i64 noundef %85) #18
  br label %.sink.split

.sink.split:                                      ; preds = %87, %59, %83
  %.064.ph = phi ptr [ null, %83 ], [ %1, %87 ], [ null, %59 ]
  tail call void @evbuffer_free(ptr noundef nonnull %8) #18
  br label %89

89:                                               ; preds = %.sink.split, %7, %3
  %.064 = phi ptr [ null, %3 ], [ null, %7 ], [ %.064.ph, %.sink.split ]
  ret ptr %.064
}